; Function Attrs: mustprogress uwtable
define void @_ZNK6casadi18DaeBuilderInternal6outputENS0_21DaeBuilderInternalOutE(ptr dead_on_unwind noalias writable sret(%"class.std::vector.68") align 8 initializes((0, 24)) %0, ptr noundef nonnull readonly align 8 captures(none) dereferenceable(1017) %1, i32 noundef %2) local_unnamed_addr #4 align 2 {
  switch i32 %2, label %11 [
    i32 0, label %4
    i32 1, label %5
    i32 2, label %6
    i32 3, label %7
    i32 4, label %8
    i32 5, label %9
    i32 6, label %10
  ]

4:                                                ; preds = %3
  tail call void @_ZNK6casadi18DaeBuilderInternal3odeEv(ptr dead_on_unwind writable sret(%"class.std::vector.68") align 8 %0, ptr noundef nonnull align 8 dereferenceable(1017) %1)
  br label %12

5:                                                ; preds = %3
  tail call void @_ZNK6casadi18DaeBuilderInternal3algEv(ptr dead_on_unwind writable sret(%"class.std::vector.68") align 8 %0, ptr noundef nonnull align 8 dereferenceable(1017) %1)
  br label %12

6:                                                ; preds = %3
  tail call void @_ZNK6casadi18DaeBuilderInternal4quadEv(ptr dead_on_unwind writable sret(%"class.std::vector.68") align 8 %0, ptr noundef nonnull align 8 dereferenceable(1017) %1)
  br label %12

7:                                                ; preds = %3
  tail call void @_ZNK6casadi18DaeBuilderInternal4zeroEv(ptr dead_on_unwind writable sret(%"class.std::vector.68") align 8 %0, ptr noundef nonnull align 8 dereferenceable(1017) %1)
  br label %12

8:                                                ; preds = %3
  tail call void @_ZNK6casadi18DaeBuilderInternal4ddefEv(ptr dead_on_unwind writable sret(%"class.std::vector.68") align 8 %0, ptr noundef nonnull align 8 dereferenceable(1017) %1)
  br label %12

9:                                                ; preds = %3
  tail call void @_ZNK6casadi18DaeBuilderInternal4wdefEv(ptr dead_on_unwind writable sret(%"class.std::vector.68") align 8 %0, ptr noundef nonnull align 8 dereferenceable(1017) %1)
  br label %12

10:                                               ; preds = %3
  tail call void @_ZNK6casadi18DaeBuilderInternal4ydefEv(ptr dead_on_unwind writable sret(%"class.std::vector.68") align 8 %0, ptr noundef nonnull align 8 dereferenceable(1017) %1)
  br label %12

11:                                               ; preds = %3
  tail call void @llvm.memset.p0.i64(ptr noundef nonnull align 8 dereferenceable(24) %0, i8 0, i64 24, i1 false)
  br label %12

12:                                               ; preds = %11, %10, %9, %8, %7, %6, %5, %4
  ret void
}